target datalayout = "e-m:e-p270:32:32-p271:32:32-p272:64:64-i64:64-i128:128-f80:128-n8:16:32:64-S128"
target triple = "x86_64-pc-linux-gnu"

%struct.AVRational = type { i32, i32 }
%struct.AVCodecContext = type { ptr, i32, i32, ptr, i32, i32, ptr, ptr, ptr, i64, i32, i32, ptr, i32, %struct.AVRational, %struct.AVRational, %struct.AVRational, i32, i32, i32, i32, i32, %struct.AVRational, i32, i32, i32, i32, i32, i32, i32, i32, i32, i32, i32, ptr, ptr, i32, float, float, float, float, float, float, float, float, float, i32, i32, i32, i32, i32, i32, i32, i32, i32, i32, i32, i32, ptr, ptr, ptr, i32, i32, i32, i32, i32, i32, i32, i32, i32, i32, %struct.AVChannelLayout, i32, i32, i32, i32, i32, i32, i32, i32, ptr, i32, i32, i32, float, float, i32, i32, i32, i32, i32, ptr, i64, i64, float, float, i32, i32, ptr, ptr, i32, i32, i32, i32, i32, ptr, ptr, ptr, ptr, i32, i32, [8 x i64], i32, i32, i32, i32, i32, i32, i32, ptr, ptr, i32, i32, i32, i32, i32, i32, i32, i32, i32, i32, ptr, ptr, i32, i32, ptr, ptr, ptr, ptr, i32, i32, i64, i32, i32, i64, ptr, i64, ptr, i32, ptr, i32 }
%struct.AVChannelLayout = type { i32, i32, %union.anon, ptr }
%union.anon = type { i64 }
%struct.AVBufferRef = type { ptr, ptr, i64 }
%struct.AVHWAccel = type { ptr, i32, i32, i32, i32 }
%struct.AVHWFramesContext = type { ptr, ptr, ptr, ptr, ptr, ptr, ptr, i32, i32, i32, i32, i32 }
%struct.FFHWAccel = type { %struct.AVHWAccel, ptr, ptr, ptr, ptr, ptr, i32, i32, i32, ptr, ptr, ptr, ptr, ptr, ptr }
%union.AVRefStructOpaque = type { ptr }

@.str = private unnamed_addr constant [30 x i8] c"Assertion %s failed at %s:%d\0A\00", align 1
@.str.2 = private unnamed_addr constant [20 x i8] c"libavcodec/decode.c\00", align 1
@.str.33 = private unnamed_addr constant [26 x i8] c"!*hwaccel_picture_private\00", align 1

; Function Attrs: inlinehint nounwind uwtable
define internal ptr @av_refstruct_allocz(i64 noundef %0) #7 {
  %2 = alloca i64, align 8
  store i64 %0, ptr %2, align 8, !tbaa !69
  %3 = load i64, ptr %2, align 8, !tbaa !69
  %4 = call ptr @av_refstruct_alloc_ext(i64 noundef %3, i32 noundef 0, ptr noundef null, ptr noundef null)
  ret ptr %4
}

; Function Attrs: inlinehint nounwind uwtable
define internal ptr @av_refstruct_alloc_ext(i64 noundef %0, i32 noundef %1, ptr noundef %2, ptr noundef %3) #7 {
  %5 = alloca i64, align 8
  %6 = alloca i32, align 4
  %7 = alloca ptr, align 8
  %8 = alloca ptr, align 8
  %9 = alloca %union.AVRefStructOpaque, align 8
  store i64 %0, ptr %5, align 8, !tbaa !69
  store i32 %1, ptr %6, align 4, !tbaa !41
  store ptr %2, ptr %7, align 8, !tbaa !142
  store ptr %3, ptr %8, align 8, !tbaa !142
  %10 = load i64, ptr %5, align 8, !tbaa !69
  %11 = load i32, ptr %6, align 4, !tbaa !41
  %12 = load ptr, ptr %7, align 8, !tbaa !142
  store ptr %12, ptr %9, align 8, !tbaa !63
  %13 = load ptr, ptr %8, align 8, !tbaa !142
  %14 = getelementptr inbounds nuw %union.AVRefStructOpaque, ptr %9, i32 0, i32 0
  %15 = load ptr, ptr %14, align 8
  %16 = call ptr @av_refstruct_alloc_ext_c(i64 noundef %10, i32 noundef %11, ptr %15, ptr noundef %13)
  ret ptr %16
}

; Function Attrs: inlinehint nounwind uwtable
define internal ptr @ffhwaccel(ptr noundef %0) #7 {
  %2 = alloca ptr, align 8
  store ptr %0, ptr %2, align 8, !tbaa !200
  %3 = load ptr, ptr %2, align 8, !tbaa !200
  ret ptr %3
}

; Function Attrs: nounwind uwtable
define i32 @ff_hwaccel_frame_priv_alloc(ptr noundef %0, ptr noundef %1) #0 {
  %3 = alloca i32, align 4
  %4 = alloca ptr, align 8
  %5 = alloca ptr, align 8
  %6 = alloca ptr, align 8
  %7 = alloca i32, align 4
  %8 = alloca ptr, align 8
  store ptr %0, ptr %4, align 8, !tbaa !4
  store ptr %1, ptr %5, align 8, !tbaa !317
  call void @llvm.lifetime.start.p0(i64 8, ptr %6) #11
  %9 = load ptr, ptr %4, align 8, !tbaa !4
  %10 = getelementptr inbounds nuw %struct.AVCodecContext, ptr %9, i32 0, i32 105
  %11 = load ptr, ptr %10, align 8, !tbaa !174
  %12 = call ptr @ffhwaccel(ptr noundef %11)
  store ptr %12, ptr %6, align 8, !tbaa !190
  %13 = load ptr, ptr %6, align 8, !tbaa !190
  %14 = icmp ne ptr %13, null
  br i1 %14, label %15, label %20

15:                                               ; preds = %2
  %16 = load ptr, ptr %6, align 8, !tbaa !190
  %17 = getelementptr inbounds nuw %struct.FFHWAccel, ptr %16, i32 0, i32 6
  %18 = load i32, ptr %17, align 8, !tbaa !318
  %19 = icmp ne i32 %18, 0
  br i1 %19, label %21, label %20

20:                                               ; preds = %15, %2
  store i32 0, ptr %3, align 4
  store i32 1, ptr %7, align 4
  br label %74

21:                                               ; preds = %15
  br label %22

22:                                               ; preds = %21
  %23 = load ptr, ptr %5, align 8, !tbaa !317
  %24 = load ptr, ptr %23, align 8, !tbaa !142
  %25 = icmp ne ptr %24, null
  br i1 %25, label %26, label %27

26:                                               ; preds = %22
  call void (ptr, i32, ptr, ...) @av_log(ptr noundef null, i32 noundef 0, ptr noundef @.str, ptr noundef @.str.33, ptr noundef @.str.2, i32 noundef 2162)
  call void @abort() #12
  unreachable

27:                                               ; preds = %22
  br label %28

28:                                               ; preds = %27
  br label %29

29:                                               ; preds = %28
  %30 = load ptr, ptr %6, align 8, !tbaa !190
  %31 = getelementptr inbounds nuw %struct.FFHWAccel, ptr %30, i32 0, i32 13
  %32 = load ptr, ptr %31, align 8, !tbaa !319
  %33 = icmp ne ptr %32, null
  br i1 %33, label %34, label %61

34:                                               ; preds = %29
  call void @llvm.lifetime.start.p0(i64 8, ptr %8) #11
  %35 = load ptr, ptr %4, align 8, !tbaa !4
  %36 = getelementptr inbounds nuw %struct.AVCodecContext, ptr %35, i32 0, i32 107
  %37 = load ptr, ptr %36, align 8, !tbaa !175
  %38 = icmp ne ptr %37, null
  br i1 %38, label %40, label %39

39:                                               ; preds = %34
  store i32 -22, ptr %3, align 4
  store i32 1, ptr %7, align 4
  br label %58

40:                                               ; preds = %34
  %41 = load ptr, ptr %4, align 8, !tbaa !4
  %42 = getelementptr inbounds nuw %struct.AVCodecContext, ptr %41, i32 0, i32 107
  %43 = load ptr, ptr %42, align 8, !tbaa !175
  %44 = getelementptr inbounds nuw %struct.AVBufferRef, ptr %43, i32 0, i32 1
  %45 = load ptr, ptr %44, align 8, !tbaa !152
  store ptr %45, ptr %8, align 8, !tbaa !178
  %46 = load ptr, ptr %6, align 8, !tbaa !190
  %47 = getelementptr inbounds nuw %struct.FFHWAccel, ptr %46, i32 0, i32 6
  %48 = load i32, ptr %47, align 8, !tbaa !318
  %49 = sext i32 %48 to i64
  %50 = load ptr, ptr %8, align 8, !tbaa !178
  %51 = getelementptr inbounds nuw %struct.AVHWFramesContext, ptr %50, i32 0, i32 2
  %52 = load ptr, ptr %51, align 8, !tbaa !320
  %53 = load ptr, ptr %6, align 8, !tbaa !190
  %54 = getelementptr inbounds nuw %struct.FFHWAccel, ptr %53, i32 0, i32 13
  %55 = load ptr, ptr %54, align 8, !tbaa !319
  %56 = call ptr @av_refstruct_alloc_ext(i64 noundef %49, i32 noundef 0, ptr noundef %52, ptr noundef %55)
  %57 = load ptr, ptr %5, align 8, !tbaa !317
  store ptr %56, ptr %57, align 8, !tbaa !142
  store i32 0, ptr %7, align 4
  br label %58

58:                                               ; preds = %40, %39
  call void @llvm.lifetime.end.p0(i64 8, ptr %8) #11
  %59 = load i32, ptr %7, align 4
  switch i32 %59, label %74 [
    i32 0, label %60
  ]

60:                                               ; preds = %58
  br label %68

61:                                               ; preds = %29
  %62 = load ptr, ptr %6, align 8, !tbaa !190
  %63 = getelementptr inbounds nuw %struct.FFHWAccel, ptr %62, i32 0, i32 6
  %64 = load i32, ptr %63, align 8, !tbaa !318
  %65 = sext i32 %64 to i64
  %66 = call ptr @av_refstruct_allocz(i64 noundef %65)
  %67 = load ptr, ptr %5, align 8, !tbaa !317
  store ptr %66, ptr %67, align 8, !tbaa !142
  br label %68

68:                                               ; preds = %61, %60
  %69 = load ptr, ptr %5, align 8, !tbaa !317
  %70 = load ptr, ptr %69, align 8, !tbaa !142
  %71 = icmp ne ptr %70, null
  br i1 %71, label %73, label %72

72:                                               ; preds = %68
  store i32 -12, ptr %3, align 4
  store i32 1, ptr %7, align 4
  br label %74

73:                                               ; preds = %68
  store i32 0, ptr %3, align 4
  store i32 1, ptr %7, align 4
  br label %74

74:                                               ; preds = %73, %72, %58, %20
  call void @llvm.lifetime.end.p0(i64 8, ptr %6) #11
  %75 = load i32, ptr %3, align 4
  ret i32 %75
}