; Function Attrs: nounwind uwtable
define range(i32 -22, 1) i32 @ff_hwaccel_frame_priv_alloc(ptr noundef readonly captures(none) %0, ptr noundef captures(none) %1) local_unnamed_addr #0 {
  %3 = getelementptr inbounds nuw i8, ptr %0, i64 536
  %4 = load ptr, ptr %3, align 8, !tbaa !154
  %.not = icmp eq ptr %4, null
  br i1 %.not, label %.critedge, label %5

5:                                                ; preds = %2
  %6 = getelementptr inbounds nuw i8, ptr %4, i64 64
  %7 = load i32, ptr %6, align 8, !tbaa !277
  %.not20 = icmp eq i32 %7, 0
  br i1 %.not20, label %.critedge, label %8

8:                                                ; preds = %5
  %9 = load ptr, ptr %1, align 8, !tbaa !174
  %.not21 = icmp eq ptr %9, null
  br i1 %.not21, label %11, label %10

10:                                               ; preds = %8
  tail call void (ptr, i32, ptr, ...) @av_log(ptr noundef null, i32 noundef 0, ptr noundef nonnull @.str, ptr noundef nonnull @.str.33, ptr noundef nonnull @.str.2, i32 noundef 2162) #10
  tail call void @abort() #11
  unreachable

11:                                               ; preds = %8
  %12 = getelementptr inbounds nuw i8, ptr %4, i64 112
  %13 = load ptr, ptr %12, align 8, !tbaa !278
  %.not22 = icmp eq ptr %13, null
  br i1 %.not22, label %24, label %14

14:                                               ; preds = %11
  %15 = getelementptr inbounds nuw i8, ptr %0, i64 552
  %16 = load ptr, ptr %15, align 8, !tbaa !155
  %.not23.not = icmp eq ptr %16, null
  br i1 %.not23.not, label %.critedge, label %17

17:                                               ; preds = %14
  %18 = getelementptr inbounds nuw i8, ptr %16, i64 8
  %19 = load ptr, ptr %18, align 8, !tbaa !140
  %20 = sext i32 %7 to i64
  %21 = getelementptr inbounds nuw i8, ptr %19, i64 16
  %22 = load ptr, ptr %21, align 8, !tbaa !279
  %23 = tail call ptr @av_refstruct_alloc_ext_c(i64 noundef range(i64 -2147483648, 2147483648) %20, i32 noundef 0, ptr %22, ptr noundef nonnull %13) #10
  br label %27

24:                                               ; preds = %11
  %25 = sext i32 %7 to i64
  %26 = tail call ptr @av_refstruct_alloc_ext_c(i64 noundef range(i64 -2147483648, 2147483648) %25, i32 noundef 0, ptr null, ptr noundef null) #10
  br label %27

27:                                               ; preds = %17, %24
  %storemerge = phi ptr [ %23, %17 ], [ %26, %24 ]
  store ptr %storemerge, ptr %1, align 8, !tbaa !174
  %.not24 = icmp eq ptr %storemerge, null
  %. = select i1 %.not24, i32 -12, i32 0
  br label %.critedge

.critedge:                                        ; preds = %14, %27, %2, %5
  %.0 = phi i32 [ 0, %5 ], [ 0, %2 ], [ %., %27 ], [ -22, %14 ]
  ret i32 %.0
}